; Function Attrs: mustprogress nounwind uwtable
define hidden noundef zeroext i1 @_ZN9metaspace12ChunkManager21attempt_enlarge_chunkEPNS_9MetachunkE(ptr noundef nonnull align 8 dereferenceable(376) %0, ptr noundef %1) local_unnamed_addr #0 align 2 {
  %3 = load ptr, ptr @Metaspace_lock, align 8
  %.not.i.i = icmp eq ptr %3, null
  br i1 %.not.i.i, label %_ZN11MutexLockerC2EP5MutexNS0_18SafepointCheckFlagE.exit.thread, label %8

_ZN11MutexLockerC2EP5MutexNS0_18SafepointCheckFlagE.exit.thread: ; preds = %2
  %4 = getelementptr inbounds i8, ptr %1, i64 32
  %5 = load ptr, ptr %4, align 8
  %6 = getelementptr inbounds i8, ptr %0, i64 16
  %7 = tail call noundef zeroext i1 @_ZN9metaspace16VirtualSpaceNode21attempt_enlarge_chunkEPNS_9MetachunkEPNS_19FreeChunkListVectorE(ptr noundef nonnull align 8 dereferenceable(192) %5, ptr noundef nonnull %1, ptr noundef nonnull %6) #10
  br label %_ZN11MutexLockerD2Ev.exit

8:                                                ; preds = %2
  tail call void @_ZN5Mutex28lock_without_safepoint_checkEv(ptr noundef nonnull align 8 dereferenceable(104) %3) #10
  %9 = getelementptr inbounds i8, ptr %1, i64 32
  %10 = load ptr, ptr %9, align 8
  %11 = getelementptr inbounds i8, ptr %0, i64 16
  %12 = tail call noundef zeroext i1 @_ZN9metaspace16VirtualSpaceNode21attempt_enlarge_chunkEPNS_9MetachunkEPNS_19FreeChunkListVectorE(ptr noundef nonnull align 8 dereferenceable(192) %10, ptr noundef nonnull %1, ptr noundef nonnull %11) #10
  tail call void @_ZN5Mutex6unlockEv(ptr noundef nonnull align 8 dereferenceable(104) %3) #10
  br label %_ZN11MutexLockerD2Ev.exit

_ZN11MutexLockerD2Ev.exit:                        ; preds = %_ZN11MutexLockerC2EP5MutexNS0_18SafepointCheckFlagE.exit.thread, %8
  %13 = phi i1 [ %7, %_ZN11MutexLockerC2EP5MutexNS0_18SafepointCheckFlagE.exit.thread ], [ %12, %8 ]
  ret i1 %13
}